; Function Attrs: nounwind uwtable
define internal void @kdf_pvk_reset(ptr noundef %0) #0 {
  %2 = alloca [2 x %struct.ossl_param_st], align 16
  %3 = load ptr, ptr %0, align 8, !tbaa !3
  %4 = getelementptr inbounds nuw i8, ptr %0, i64 40
  tail call void @ossl_prov_digest_reset(ptr noundef nonnull %4) #5
  %5 = getelementptr inbounds nuw i8, ptr %0, i64 24
  %6 = load ptr, ptr %5, align 8, !tbaa !13
  tail call void @CRYPTO_free(ptr noundef %6, ptr noundef nonnull @.str, i32 noundef 59) #5
  %7 = getelementptr inbounds nuw i8, ptr %0, i64 8
  %8 = load ptr, ptr %7, align 8, !tbaa !15
  %9 = getelementptr inbounds nuw i8, ptr %0, i64 16
  %10 = load i64, ptr %9, align 8, !tbaa !16
  tail call void @CRYPTO_clear_free(ptr noundef %8, i64 noundef %10, ptr noundef nonnull @.str, i32 noundef 60) #5
  tail call void @OPENSSL_cleanse(ptr noundef nonnull %0, i64 noundef 64) #5
  store ptr %3, ptr %0, align 8, !tbaa !3
  call void @llvm.lifetime.start.p0(i64 80, ptr nonnull %2) #5
  %11 = tail call ptr @ossl_prov_ctx_get0_libctx(ptr noundef %3) #5
  call void @OSSL_PARAM_construct_utf8_string(ptr dead_on_unwind nonnull writable sret(%struct.ossl_param_st) align 8 %2, ptr noundef nonnull @.str.1, ptr noundef nonnull @.str.2, i64 noundef 0) #5
  %12 = getelementptr inbounds nuw i8, ptr %2, i64 40
  call void @llvm.memset.p0.i64(ptr noundef nonnull align 8 dereferenceable(40) %12, i8 0, i64 40, i1 false)
  %13 = call i32 @ossl_prov_digest_load_from_params(ptr noundef nonnull %4, ptr noundef nonnull %2, ptr noundef %11) #5
  %.not.i = icmp eq i32 %13, 0
  br i1 %.not.i, label %14, label %kdf_pvk_init.exit

14:                                               ; preds = %1
  call void @ossl_prov_digest_reset(ptr noundef nonnull %4) #5
  br label %kdf_pvk_init.exit

kdf_pvk_init.exit:                                ; preds = %1, %14
  call void @llvm.lifetime.end.p0(i64 80, ptr nonnull %2) #5
  ret void
}